target datalayout = "e-m:e-p270:32:32-p271:32:32-p272:64:64-i64:64-i128:128-f80:128-n8:16:32:64-S128"
target triple = "x86_64-pc-linux-gnu"

%"class.rocksdb::Slice" = type { ptr, i64 }
%"class.rocksdb::MinIterComparator" = type { ptr }
%"class.std::vector.3" = type { %"struct.std::_Vector_base.4" }
%"struct.std::_Vector_base.4" = type { %"struct.std::_Vector_base<rocksdb::InternalIteratorBase<rocksdb::Slice> *, std::allocator<rocksdb::InternalIteratorBase<rocksdb::Slice> *>>::_Vector_impl" }
%"struct.std::_Vector_base<rocksdb::InternalIteratorBase<rocksdb::Slice> *, std::allocator<rocksdb::InternalIteratorBase<rocksdb::Slice> *>>::_Vector_impl" = type { %"struct.std::_Vector_base<rocksdb::InternalIteratorBase<rocksdb::Slice> *, std::allocator<rocksdb::InternalIteratorBase<rocksdb::Slice> *>>::_Vector_impl_data" }
%"struct.std::_Vector_base<rocksdb::InternalIteratorBase<rocksdb::Slice> *, std::allocator<rocksdb::InternalIteratorBase<rocksdb::Slice> *>>::_Vector_impl_data" = type { ptr, ptr, ptr }
%"class.rocksdb::ForwardIterator" = type { %"class.rocksdb::InternalIteratorBase", ptr, %"struct.rocksdb::ReadOptions", ptr, ptr, ptr, i8, %"class.std::priority_queue", ptr, ptr, %"class.std::vector.3", %"class.std::vector.3", %"class.std::vector.8", ptr, i8, %"class.rocksdb::Status", %"class.rocksdb::Status", i8, i8, %"class.rocksdb::IterKey", i8, i8, ptr, [8 x i8], %"class.rocksdb::Arena" }
%"class.rocksdb::InternalIteratorBase" = type { ptr, %"class.rocksdb::Cleanable" }
%"class.rocksdb::Cleanable" = type { %"struct.rocksdb::Cleanable::Cleanup" }
%"struct.rocksdb::Cleanable::Cleanup" = type { ptr, ptr, ptr, ptr }
%"struct.rocksdb::ReadOptions" = type { ptr, ptr, ptr, %"class.std::chrono::duration", %"class.std::chrono::duration", i32, i32, i64, %"class.std::optional", i8, i8, i8, i8, i8, i64, i64, ptr, ptr, i8, i8, i8, i8, i8, i8, i8, i8, %"class.std::function", i8, i8, i8, i8, i64 }
%"class.std::chrono::duration" = type { i64 }
%"class.std::optional" = type { %"struct.std::_Optional_base" }
%"struct.std::_Optional_base" = type { %"struct.std::_Optional_payload" }
%"struct.std::_Optional_payload" = type { %"struct.std::_Optional_payload_base.base", [7 x i8] }
%"struct.std::_Optional_payload_base.base" = type <{ %"union.std::_Optional_payload_base<unsigned long>::_Storage", i8 }>
%"union.std::_Optional_payload_base<unsigned long>::_Storage" = type { i64 }
%"class.std::function" = type { %"class.std::_Function_base", ptr }
%"class.std::_Function_base" = type { %"union.std::_Any_data", ptr }
%"union.std::_Any_data" = type { %"union.std::_Nocopy_types" }
%"union.std::_Nocopy_types" = type { { i64, i64 } }
%"class.std::priority_queue" = type { %"class.std::vector.3", %"class.rocksdb::MinIterComparator" }
%"class.std::vector.8" = type { %"struct.std::_Vector_base.9" }
%"struct.std::_Vector_base.9" = type { %"struct.std::_Vector_base<rocksdb::ForwardLevelIterator *, std::allocator<rocksdb::ForwardLevelIterator *>>::_Vector_impl" }
%"struct.std::_Vector_base<rocksdb::ForwardLevelIterator *, std::allocator<rocksdb::ForwardLevelIterator *>>::_Vector_impl" = type { %"struct.std::_Vector_base<rocksdb::ForwardLevelIterator *, std::allocator<rocksdb::ForwardLevelIterator *>>::_Vector_impl_data" }
%"struct.std::_Vector_base<rocksdb::ForwardLevelIterator *, std::allocator<rocksdb::ForwardLevelIterator *>>::_Vector_impl_data" = type { ptr, ptr, ptr }
%"class.rocksdb::Status" = type { i8, i8, i8, i8, i8, i8, %"class.std::unique_ptr" }
%"class.std::unique_ptr" = type { %"struct.std::__uniq_ptr_data" }
%"struct.std::__uniq_ptr_data" = type { %"class.std::__uniq_ptr_impl" }
%"class.std::__uniq_ptr_impl" = type { %"class.std::tuple" }
%"class.std::tuple" = type { %"struct.std::_Tuple_impl" }
%"struct.std::_Tuple_impl" = type { %"struct.std::_Head_base.14" }
%"struct.std::_Head_base.14" = type { ptr }
%"class.rocksdb::IterKey" = type { ptr, ptr, i64, i64, [39 x i8], i8, [39 x i8], ptr, i64, %"struct.std::array" }
%"struct.std::array" = type { [5 x %"class.rocksdb::Slice"] }
%"class.rocksdb::Arena" = type { %"class.rocksdb::Allocator", [8 x i8], [2048 x i8], i64, %"class.std::deque", %"class.std::deque.18", i64, ptr, ptr, i64, i64, i64, ptr }
%"class.rocksdb::Allocator" = type { ptr }
%"class.std::deque" = type { %"class.std::_Deque_base" }
%"class.std::_Deque_base" = type { %"struct.std::_Deque_base<std::unique_ptr<char[]>, std::allocator<std::unique_ptr<char[]>>>::_Deque_impl" }
%"struct.std::_Deque_base<std::unique_ptr<char[]>, std::allocator<std::unique_ptr<char[]>>>::_Deque_impl" = type { %"struct.std::_Deque_base<std::unique_ptr<char[]>, std::allocator<std::unique_ptr<char[]>>>::_Deque_impl_data" }
%"struct.std::_Deque_base<std::unique_ptr<char[]>, std::allocator<std::unique_ptr<char[]>>>::_Deque_impl_data" = type { ptr, i64, %"struct.std::_Deque_iterator", %"struct.std::_Deque_iterator" }
%"struct.std::_Deque_iterator" = type { ptr, ptr, ptr, ptr }
%"class.std::deque.18" = type { %"class.std::_Deque_base.19" }
%"class.std::_Deque_base.19" = type { %"struct.std::_Deque_base<rocksdb::MemMapping, std::allocator<rocksdb::MemMapping>>::_Deque_impl" }
%"struct.std::_Deque_base<rocksdb::MemMapping, std::allocator<rocksdb::MemMapping>>::_Deque_impl" = type { %"struct.std::_Deque_base<rocksdb::MemMapping, std::allocator<rocksdb::MemMapping>>::_Deque_impl_data" }
%"struct.std::_Deque_base<rocksdb::MemMapping, std::allocator<rocksdb::MemMapping>>::_Deque_impl_data" = type { ptr, i64, %"struct.std::_Deque_iterator.23", %"struct.std::_Deque_iterator.23" }
%"struct.std::_Deque_iterator.23" = type { ptr, ptr, ptr, ptr }
%"class.rocksdb::PinnedIteratorsManager" = type { %"class.rocksdb::Cleanable", i8, %"class.std::vector.512" }
%"class.std::vector.512" = type { %"struct.std::_Vector_base.513" }
%"struct.std::_Vector_base.513" = type { %"struct.std::_Vector_base<std::pair<void *, void (*)(void *)>, std::allocator<std::pair<void *, void (*)(void *)>>>::_Vector_impl" }
%"struct.std::_Vector_base<std::pair<void *, void (*)(void *)>, std::allocator<std::pair<void *, void (*)(void *)>>>::_Vector_impl" = type { %"struct.std::_Vector_base<std::pair<void *, void (*)(void *)>, std::allocator<std::pair<void *, void (*)(void *)>>>::_Vector_impl_data" }
%"struct.std::_Vector_base<std::pair<void *, void (*)(void *)>, std::allocator<std::pair<void *, void (*)(void *)>>>::_Vector_impl_data" = type { ptr, ptr, ptr }

; Function Attrs: mustprogress nounwind uwtable
define linkonce_odr noundef zeroext i1 @_ZN7rocksdb22PinnedIteratorsManager14PinningEnabledEv(ptr noundef nonnull align 8 dereferenceable(64) %0) #5 comdat align 2 {
  %2 = alloca ptr, align 8
  store ptr %0, ptr %2, align 8, !tbaa !376
  %3 = load ptr, ptr %2, align 8
  %4 = getelementptr inbounds nuw %"class.rocksdb::PinnedIteratorsManager", ptr %3, i32 0, i32 1
  %5 = load i8, ptr %4, align 8, !tbaa !377, !range !145, !noundef !146
  %6 = trunc i8 %5 to i1
  ret i1 %6
}

; Function Attrs: mustprogress uwtable
define void @_ZN7rocksdb15ForwardIterator14DeleteIteratorEPNS_20InternalIteratorBaseINS_5SliceEEEb(ptr noundef nonnull align 16 dereferenceable(2944) %0, ptr noundef %1, i1 noundef zeroext %2) #4 align 2 {
  %4 = alloca ptr, align 8
  %5 = alloca ptr, align 8
  %6 = alloca i8, align 1
  store ptr %0, ptr %4, align 8, !tbaa !66
  store ptr %1, ptr %5, align 8, !tbaa !208
  %7 = zext i1 %2 to i8
  store i8 %7, ptr %6, align 1, !tbaa !76
  %8 = load ptr, ptr %4, align 8
  %9 = load ptr, ptr %5, align 8, !tbaa !208
  %10 = icmp eq ptr %9, null
  br i1 %10, label %11, label %12

11:                                               ; preds = %3
  br label %43

12:                                               ; preds = %3
  %13 = getelementptr inbounds nuw %"class.rocksdb::ForwardIterator", ptr %8, i32 0, i32 22
  %14 = load ptr, ptr %13, align 16, !tbaa !156
  %15 = icmp ne ptr %14, null
  br i1 %15, label %16, label %26

16:                                               ; preds = %12
  %17 = getelementptr inbounds nuw %"class.rocksdb::ForwardIterator", ptr %8, i32 0, i32 22
  %18 = load ptr, ptr %17, align 16, !tbaa !156
  %19 = call noundef zeroext i1 @_ZN7rocksdb22PinnedIteratorsManager14PinningEnabledEv(ptr noundef nonnull align 8 dereferenceable(64) %18)
  br i1 %19, label %20, label %26

20:                                               ; preds = %16
  %21 = getelementptr inbounds nuw %"class.rocksdb::ForwardIterator", ptr %8, i32 0, i32 22
  %22 = load ptr, ptr %21, align 16, !tbaa !156
  %23 = load ptr, ptr %5, align 8, !tbaa !208
  %24 = load i8, ptr %6, align 1, !tbaa !76, !range !145, !noundef !146
  %25 = trunc i8 %24 to i1
  call void @_ZN7rocksdb22PinnedIteratorsManager11PinIteratorEPNS_20InternalIteratorBaseINS_5SliceEEEb(ptr noundef nonnull align 8 dereferenceable(64) %22, ptr noundef %23, i1 noundef zeroext %25)
  br label %43

26:                                               ; preds = %16, %12
  %27 = load i8, ptr %6, align 1, !tbaa !76, !range !145, !noundef !146
  %28 = trunc i8 %27 to i1
  br i1 %28, label %29, label %34

29:                                               ; preds = %26
  %30 = load ptr, ptr %5, align 8, !tbaa !208
  %31 = load ptr, ptr %30, align 8, !tbaa !26
  %32 = getelementptr inbounds ptr, ptr %31, i64 0
  %33 = load ptr, ptr %32, align 8
  call void %33(ptr noundef nonnull align 8 dereferenceable(40) %30) #6
  br label %42

34:                                               ; preds = %26
  %35 = load ptr, ptr %5, align 8, !tbaa !208
  %36 = icmp eq ptr %35, null
  br i1 %36, label %41, label %37

37:                                               ; preds = %34
  %38 = load ptr, ptr %35, align 8, !tbaa !26
  %39 = getelementptr inbounds ptr, ptr %38, i64 1
  %40 = load ptr, ptr %39, align 8
  call void %40(ptr noundef nonnull align 8 dereferenceable(40) %35) #6
  br label %41

41:                                               ; preds = %37, %34
  br label %42

42:                                               ; preds = %41, %29
  br label %43

43:                                               ; preds = %11, %42, %20
  ret void
}