; Function Attrs: mustprogress uwtable
define void @_ZN7rocksdb15ForwardIterator14DeleteIteratorEPNS_20InternalIteratorBaseINS_5SliceEEEb(ptr noundef nonnull readonly align 16 captures(none) dereferenceable(2944) %0, ptr noundef %1, i1 noundef zeroext %2) local_unnamed_addr #5 align 2 {
  %4 = icmp eq ptr %1, null
  br i1 %4, label %20, label %5

5:                                                ; preds = %3
  %6 = getelementptr inbounds nuw i8, ptr %0, i64 640
  %7 = load ptr, ptr %6, align 16, !tbaa !128
  %.not = icmp eq ptr %7, null
  br i1 %.not, label %13, label %8

8:                                                ; preds = %5
  %9 = getelementptr inbounds nuw i8, ptr %7, i64 32
  %10 = load i8, ptr %9, align 8, !tbaa !392, !range !290, !noundef !291
  %11 = trunc nuw i8 %10 to i1
  br i1 %11, label %12, label %13

12:                                               ; preds = %8
  tail call void @_ZN7rocksdb22PinnedIteratorsManager11PinIteratorEPNS_20InternalIteratorBaseINS_5SliceEEEb(ptr noundef nonnull align 8 dereferenceable(64) %7, ptr noundef nonnull %1, i1 noundef zeroext %2)
  br label %20

13:                                               ; preds = %8, %5
  %14 = load ptr, ptr %1, align 8, !tbaa !19
  br i1 %2, label %15, label %17

15:                                               ; preds = %13
  %16 = load ptr, ptr %14, align 8
  tail call void %16(ptr noundef nonnull align 8 dereferenceable(40) %1) #28
  br label %20

17:                                               ; preds = %13
  %18 = getelementptr inbounds nuw i8, ptr %14, i64 8
  %19 = load ptr, ptr %18, align 8
  tail call void %19(ptr noundef nonnull align 8 dereferenceable(40) %1) #28
  br label %20

20:                                               ; preds = %15, %17, %3, %12
  ret void
}